CCS PCM C Compiler, Version 4.084, 44421               19-nov-14 19:21

               Filename: main.lst

               ROM used: 175 words (2%)
                         Largest free fragment is 2048
               RAM used: 7 (2%) at main() level
                         8 (2%) worst case
               Stack:    1 locations

*
0000:  MOVLW  00
0001:  MOVWF  0A
0002:  GOTO   019
0003:  NOP
.................... #include "C:\Documents and Settings\Propietario\Escritorio\Practica 8\main.h" 
.................... #include <16F877.h> 
.................... //////// Standard Header file for the PIC16F877 device //////////////// 
.................... #device PIC16F877 
.................... #list 
....................  
.................... #device adc=8 
....................  
.................... #FUSES NOWDT                 	//No Watch Dog Timer 
.................... #FUSES XT                    	//Crystal osc <= 4mhz for PCM/PCH , 3mhz to 10 mhz for PCD 
.................... #FUSES NOPUT                 	//No Power Up Timer 
.................... #FUSES NOPROTECT             	//Code not protected from reading 
.................... #FUSES NOBROWNOUT            	//No brownout reset 
.................... #FUSES NOLVP                 	//No low voltage prgming, B3(PIC16) or B5(PIC18) used for I/O 
.................... #FUSES NOCPD                 	//No EE protection 
.................... #FUSES NOWRT                 	//Program memory not write protected 
.................... #FUSES NODEBUG               	//No Debug mode for ICD 
....................  
.................... #use delay(clock=4000000) 
*
0004:  MOVLW  21
0005:  MOVWF  04
0006:  BCF    03.7
0007:  MOVF   00,W
0008:  BTFSC  03.2
0009:  GOTO   018
000A:  MOVLW  01
000B:  MOVWF  78
000C:  CLRF   77
000D:  DECFSZ 77,F
000E:  GOTO   00D
000F:  DECFSZ 78,F
0010:  GOTO   00C
0011:  MOVLW  4A
0012:  MOVWF  77
0013:  DECFSZ 77,F
0014:  GOTO   013
0015:  GOTO   016
0016:  DECFSZ 00,F
0017:  GOTO   00A
0018:  RETLW  00
.................... #use rs232(baud=9600,parity=N,xmit=PIN_C6,rcv=PIN_C7,bits=8) 
....................  
....................  
....................  
....................  
.................... void main() 
.................... { 
0019:  CLRF   04
001A:  BCF    03.7
001B:  MOVLW  1F
001C:  ANDWF  03,F
001D:  MOVLW  19
001E:  BSF    03.5
001F:  MOVWF  19
0020:  MOVLW  A6
0021:  MOVWF  18
0022:  MOVLW  90
0023:  BCF    03.5
0024:  MOVWF  18
0025:  BSF    03.5
0026:  BSF    1F.0
0027:  BSF    1F.1
0028:  BSF    1F.2
0029:  BCF    1F.3
....................  
....................    setup_adc_ports(NO_ANALOGS); 
*
002D:  BSF    03.5
002E:  BSF    1F.0
002F:  BSF    1F.1
0030:  BSF    1F.2
0031:  BCF    1F.3
....................    setup_adc(ADC_OFF); 
0032:  BCF    03.5
0033:  BCF    1F.0
....................    setup_psp(PSP_DISABLED); 
0034:  BSF    03.5
0035:  BCF    09.4
....................    setup_spi(SPI_SS_DISABLED); 
0036:  BCF    03.5
0037:  BCF    14.5
0038:  BCF    20.5
0039:  MOVF   20,W
003A:  BSF    03.5
003B:  MOVWF  07
003C:  BCF    03.5
003D:  BSF    20.4
003E:  MOVF   20,W
003F:  BSF    03.5
0040:  MOVWF  07
0041:  BCF    03.5
0042:  BCF    20.3
0043:  MOVF   20,W
0044:  BSF    03.5
0045:  MOVWF  07
0046:  MOVLW  01
0047:  BCF    03.5
0048:  MOVWF  14
0049:  MOVLW  00
004A:  BSF    03.5
004B:  MOVWF  14
....................    setup_timer_0(RTCC_INTERNAL|RTCC_DIV_1); 
004C:  MOVF   01,W
004D:  ANDLW  C7
004E:  IORLW  08
004F:  MOVWF  01
....................    setup_timer_1(T1_DISABLED); 
0050:  BCF    03.5
0051:  CLRF   10
....................    setup_timer_2(T2_DISABLED,0,1); 
0052:  MOVLW  00
0053:  MOVWF  78
0054:  MOVWF  12
0055:  MOVLW  00
0056:  BSF    03.5
0057:  MOVWF  12
....................     
....................    
....................    while(true) 
....................    { 
....................    OUTPUT_HIGH(PIN_B0); 
0058:  BCF    06.0
0059:  BCF    03.5
005A:  BSF    06.0
....................    OUTPUT_HIGH(PIN_B1); 
005B:  BSF    03.5
005C:  BCF    06.1
005D:  BCF    03.5
005E:  BSF    06.1
....................    DELAY_ms(25); 
005F:  MOVLW  19
0060:  MOVWF  21
0061:  CALL   004
....................    OUTPUT_LOW(PIN_B0); 
0062:  BSF    03.5
0063:  BCF    06.0
0064:  BCF    03.5
0065:  BCF    06.0
....................    OUTPUT_LOW(PIN_B1); 
0066:  BSF    03.5
0067:  BCF    06.1
0068:  BCF    03.5
0069:  BCF    06.1
....................    DELAY_ms(100); 
006A:  MOVLW  64
006B:  MOVWF  21
006C:  CALL   004
....................    OUTPUT_HIGH(PIN_B0); 
006D:  BSF    03.5
006E:  BCF    06.0
006F:  BCF    03.5
0070:  BSF    06.0
....................    OUTPUT_HIGH(PIN_B1); 
0071:  BSF    03.5
0072:  BCF    06.1
0073:  BCF    03.5
0074:  BSF    06.1
....................    DELAY_ms(25); 
0075:  MOVLW  19
0076:  MOVWF  21
0077:  CALL   004
....................    OUTPUT_LOW(PIN_B0); 
0078:  BSF    03.5
0079:  BCF    06.0
007A:  BCF    03.5
007B:  BCF    06.0
....................    OUTPUT_LOW(PIN_B1); 
007C:  BSF    03.5
007D:  BCF    06.1
007E:  BCF    03.5
007F:  BCF    06.1
....................    DELAY_ms(250); 
0080:  MOVLW  FA
0081:  MOVWF  21
0082:  CALL   004
....................    OUTPUT_HIGH(PIN_B2); 
0083:  BSF    03.5
0084:  BCF    06.2
0085:  BCF    03.5
0086:  BSF    06.2
....................    OUTPUT_HIGH(PIN_B3); 
0087:  BSF    03.5
0088:  BCF    06.3
0089:  BCF    03.5
008A:  BSF    06.3
....................    DELAY_ms(25); 
008B:  MOVLW  19
008C:  MOVWF  21
008D:  CALL   004
....................    OUTPUT_LOW(PIN_B2); 
008E:  BSF    03.5
008F:  BCF    06.2
0090:  BCF    03.5
0091:  BCF    06.2
....................    OUTPUT_LOW(PIN_B3); 
0092:  BSF    03.5
0093:  BCF    06.3
0094:  BCF    03.5
0095:  BCF    06.3
....................    DELAY_ms(100); 
0096:  MOVLW  64
0097:  MOVWF  21
0098:  CALL   004
....................    OUTPUT_HIGH(PIN_B2); 
0099:  BSF    03.5
009A:  BCF    06.2
009B:  BCF    03.5
009C:  BSF    06.2
....................    OUTPUT_HIGH(PIN_B3); 
009D:  BSF    03.5
009E:  BCF    06.3
009F:  BCF    03.5
00A0:  BSF    06.3
....................    DELAY_ms(25); 
00A1:  MOVLW  19
00A2:  MOVWF  21
00A3:  CALL   004
....................    OUTPUT_LOW(PIN_B2); 
00A4:  BSF    03.5
00A5:  BCF    06.2
00A6:  BCF    03.5
00A7:  BCF    06.2
....................    OUTPUT_LOW(PIN_B3); 
00A8:  BSF    03.5
00A9:  BCF    06.3
00AA:  BCF    03.5
00AB:  BCF    06.3
....................   } 
00AC:  BSF    03.5
00AD:  GOTO   058
....................  
....................    // TODO: USER CODE!! 
....................  
.................... } 
00AE:  SLEEP

Configuration Fuses:
   Word  1: 3F39   XT NOWDT NOPUT NOPROTECT NOBROWNOUT NOLVP NOCPD NOWRT NODEBUG
